target datalayout = "e-m:e-p270:32:32-p271:32:32-p272:64:64-i64:64-f80:128-n8:16:32:64-S128"
target triple = "x86_64-pc-linux-gnu"

@.str = private unnamed_addr constant [9 x i8] c"%d %d %d\00", align 1
@.str.1 = private unnamed_addr constant [3 x i8] c"%d\00", align 1

; Function Attrs: noinline nounwind uwtable
define dso_local i32 @run(i32 %0) #0 {
  %2 = alloca i32, align 4
  %3 = alloca i32, align 4
  store i32 %0, i32* %3, align 4
  %4 = load i32, i32* %3, align 4
  %5 = srem i32 %4, 4
  %6 = icmp eq i32 %5, 0
  br i1 %6, label %7, label %12

7:                                                ; preds = %1
  %8 = load i32, i32* %3, align 4
  %9 = srem i32 %8, 100
  %10 = icmp ne i32 %9, 0
  br i1 %10, label %11, label %12

11:                                               ; preds = %7
  store i32 1, i32* %2, align 4
  br label %18

12:                                               ; preds = %7, %1
  %13 = load i32, i32* %3, align 4
  %14 = srem i32 %13, 400
  %15 = icmp eq i32 %14, 0
  br i1 %15, label %16, label %17

16:                                               ; preds = %12
  store i32 1, i32* %2, align 4
  br label %18

17:                                               ; preds = %12
  store i32 0, i32* %2, align 4
  br label %18

18:                                               ; preds = %17, %16, %11
  %19 = load i32, i32* %2, align 4
  ret i32 %19
}

; Function Attrs: noinline nounwind uwtable
define dso_local i32 @yue(i32 %0, i32 %1) #0 {
  %3 = alloca i32, align 4
  %4 = alloca i32, align 4
  %5 = alloca i32, align 4
  store i32 %0, i32* %4, align 4
  store i32 %1, i32* %5, align 4
  %6 = load i32, i32* %5, align 4
  %7 = icmp eq i32 %6, 1
  br i1 %7, label %26, label %8

8:                                                ; preds = %2
  %9 = load i32, i32* %5, align 4
  %10 = icmp eq i32 %9, 3
  br i1 %10, label %26, label %11

11:                                               ; preds = %8
  %12 = load i32, i32* %5, align 4
  %13 = icmp eq i32 %12, 5
  br i1 %13, label %26, label %14

14:                                               ; preds = %11
  %15 = load i32, i32* %5, align 4
  %16 = icmp eq i32 %15, 7
  br i1 %16, label %26, label %17

17:                                               ; preds = %14
  %18 = load i32, i32* %5, align 4
  %19 = icmp eq i32 %18, 8
  br i1 %19, label %26, label %20

20:                                               ; preds = %17
  %21 = load i32, i32* %5, align 4
  %22 = icmp eq i32 %21, 10
  br i1 %22, label %26, label %23

23:                                               ; preds = %20
  %24 = load i32, i32* %5, align 4
  %25 = icmp eq i32 %24, 12
  br i1 %25, label %26, label %27

26:                                               ; preds = %23, %20, %17, %14, %11, %8, %2
  store i32 31, i32* %3, align 4
  br label %44

27:                                               ; preds = %23
  %28 = load i32, i32* %4, align 4
  %29 = call i32 @run(i32 %28)
  %30 = icmp eq i32 %29, 1
  br i1 %30, label %31, label %35

31:                                               ; preds = %27
  %32 = load i32, i32* %5, align 4
  %33 = icmp eq i32 %32, 2
  br i1 %33, label %34, label %35

34:                                               ; preds = %31
  store i32 29, i32* %3, align 4
  br label %44

35:                                               ; preds = %31, %27
  %36 = load i32, i32* %4, align 4
  %37 = call i32 @run(i32 %36)
  %38 = icmp eq i32 %37, 0
  br i1 %38, label %39, label %43

39:                                               ; preds = %35
  %40 = load i32, i32* %5, align 4
  %41 = icmp eq i32 %40, 2
  br i1 %41, label %42, label %43

42:                                               ; preds = %39
  store i32 28, i32* %3, align 4
  br label %44

43:                                               ; preds = %39, %35
  store i32 30, i32* %3, align 4
  br label %44

44:                                               ; preds = %43, %42, %34, %26
  %45 = load i32, i32* %3, align 4
  ret i32 %45
}

; Function Attrs: noinline nounwind uwtable
define dso_local i32 @days(i32 %0, i32 %1, i32 %2) #0 {
  %4 = alloca i32, align 4
  %5 = alloca i32, align 4
  %6 = alloca i32, align 4
  %7 = alloca i32, align 4
  %8 = alloca i32, align 4
  store i32 %0, i32* %4, align 4
  store i32 %1, i32* %5, align 4
  store i32 %2, i32* %6, align 4
  store i32 0, i32* %7, align 4
  store i32 1, i32* %8, align 4
  br label %9

9:                                                ; preds = %19, %3
  %10 = load i32, i32* %8, align 4
  %11 = load i32, i32* %5, align 4
  %12 = icmp slt i32 %10, %11
  br i1 %12, label %13, label %22

13:                                               ; preds = %9
  %14 = load i32, i32* %4, align 4
  %15 = load i32, i32* %8, align 4
  %16 = call i32 @yue(i32 %14, i32 %15)
  %17 = load i32, i32* %7, align 4
  %18 = add nsw i32 %17, %16
  store i32 %18, i32* %7, align 4
  br label %19

19:                                               ; preds = %13
  %20 = load i32, i32* %8, align 4
  %21 = add nsw i32 %20, 1
  store i32 %21, i32* %8, align 4
  br label %9

22:                                               ; preds = %9
  %23 = load i32, i32* %6, align 4
  %24 = load i32, i32* %7, align 4
  %25 = add nsw i32 %24, %23
  store i32 %25, i32* %7, align 4
  %26 = load i32, i32* %7, align 4
  ret i32 %26
}

; Function Attrs: noinline nounwind uwtable
define dso_local i32 @main() #0 {
  %1 = alloca i32, align 4
  %2 = alloca i32, align 4
  %3 = alloca i32, align 4
  %4 = alloca i32, align 4
  store i32 0, i32* %1, align 4
  %5 = call i32 (i8*, ...) @__isoc99_scanf(i8* getelementptr inbounds ([9 x i8], [9 x i8]* @.str, i64 0, i64 0), i32* %2, i32* %3, i32* %4)
  %6 = load i32, i32* %2, align 4
  %7 = load i32, i32* %3, align 4
  %8 = load i32, i32* %4, align 4
  %9 = call i32 @days(i32 %6, i32 %7, i32 %8)
  %10 = call i32 (i8*, ...) @printf(i8* getelementptr inbounds ([3 x i8], [3 x i8]* @.str.1, i64 0, i64 0), i32 %9)
  ret i32 0
}